target datalayout = "e-m:e-p270:32:32-p271:32:32-p272:64:64-i64:64-i128:128-f80:128-n8:16:32:64-S128"
target triple = "x86_64-pc-linux-gnu"

%struct.HydrogenBondData = type { i8, i8, i32, i32, %"class.std::vector", %"class.std::vector", %"class.std::vector.3", %"class.std::vector.8", %"class.std::vector.13", %"class.std::vector.18", %struct.t_donors, %struct.t_acceptors, i32, i32, ptr }
%"class.std::vector" = type { %"struct.std::_Vector_base" }
%"struct.std::_Vector_base" = type { %"struct.std::_Vector_base<int, std::allocator<int>>::_Vector_impl" }
%"struct.std::_Vector_base<int, std::allocator<int>>::_Vector_impl" = type { %"struct.std::_Vector_base<int, std::allocator<int>>::_Vector_impl_data" }
%"struct.std::_Vector_base<int, std::allocator<int>>::_Vector_impl_data" = type { ptr, ptr, ptr }
%"class.std::vector.3" = type { %"struct.std::_Vector_base.4" }
%"struct.std::_Vector_base.4" = type { %"struct.std::_Vector_base<std::array<int, 4>, std::allocator<std::array<int, 4>>>::_Vector_impl" }
%"struct.std::_Vector_base<std::array<int, 4>, std::allocator<std::array<int, 4>>>::_Vector_impl" = type { %"struct.std::_Vector_base<std::array<int, 4>, std::allocator<std::array<int, 4>>>::_Vector_impl_data" }
%"struct.std::_Vector_base<std::array<int, 4>, std::allocator<std::array<int, 4>>>::_Vector_impl_data" = type { ptr, ptr, ptr }
%"class.std::vector.8" = type { %"struct.std::_Vector_base.9" }
%"struct.std::_Vector_base.9" = type { %"struct.std::_Vector_base<float, std::allocator<float>>::_Vector_impl" }
%"struct.std::_Vector_base<float, std::allocator<float>>::_Vector_impl" = type { %"struct.std::_Vector_base<float, std::allocator<float>>::_Vector_impl_data" }
%"struct.std::_Vector_base<float, std::allocator<float>>::_Vector_impl_data" = type { ptr, ptr, ptr }
%"class.std::vector.13" = type { %"struct.std::_Vector_base.14" }
%"struct.std::_Vector_base.14" = type { %"struct.std::_Vector_base<gmx::EnumerationArray<HydrogenExchangeGroup, int>, std::allocator<gmx::EnumerationArray<HydrogenExchangeGroup, int>>>::_Vector_impl" }
%"struct.std::_Vector_base<gmx::EnumerationArray<HydrogenExchangeGroup, int>, std::allocator<gmx::EnumerationArray<HydrogenExchangeGroup, int>>>::_Vector_impl" = type { %"struct.std::_Vector_base<gmx::EnumerationArray<HydrogenExchangeGroup, int>, std::allocator<gmx::EnumerationArray<HydrogenExchangeGroup, int>>>::_Vector_impl_data" }
%"struct.std::_Vector_base<gmx::EnumerationArray<HydrogenExchangeGroup, int>, std::allocator<gmx::EnumerationArray<HydrogenExchangeGroup, int>>>::_Vector_impl_data" = type { ptr, ptr, ptr }
%"class.std::vector.18" = type { %"struct.std::_Vector_base.19" }
%"struct.std::_Vector_base.19" = type { %"struct.std::_Vector_base<std::array<int, 7>, std::allocator<std::array<int, 7>>>::_Vector_impl" }
%"struct.std::_Vector_base<std::array<int, 7>, std::allocator<std::array<int, 7>>>::_Vector_impl" = type { %"struct.std::_Vector_base<std::array<int, 7>, std::allocator<std::array<int, 7>>>::_Vector_impl_data" }
%"struct.std::_Vector_base<std::array<int, 7>, std::allocator<std::array<int, 7>>>::_Vector_impl_data" = type { ptr, ptr, ptr }
%struct.t_donors = type { %"class.std::vector", %"class.std::vector", %"class.std::vector", %"class.std::vector", %"class.std::vector.3", %"class.std::vector.3" }
%struct.t_acceptors = type { %"class.std::vector", %"class.std::vector", %"class.std::vector" }

; Function Attrs: mustprogress nounwind uwtable
define linkonce_odr noundef i64 @_ZNKSt6vectorIfSaIfEE4sizeEv(ptr noundef nonnull align 8 dereferenceable(24) %0) #2 comdat align 2 {
  %2 = alloca ptr, align 8
  store ptr %0, ptr %2, align 8, !tbaa !81
  %3 = load ptr, ptr %2, align 8
  %4 = getelementptr inbounds nuw %"struct.std::_Vector_base.9", ptr %3, i32 0, i32 0
  %5 = getelementptr inbounds nuw %"struct.std::_Vector_base<float, std::allocator<float>>::_Vector_impl_data", ptr %4, i32 0, i32 1
  %6 = load ptr, ptr %5, align 8, !tbaa !126
  %7 = getelementptr inbounds nuw %"struct.std::_Vector_base.9", ptr %3, i32 0, i32 0
  %8 = getelementptr inbounds nuw %"struct.std::_Vector_base<float, std::allocator<float>>::_Vector_impl_data", ptr %7, i32 0, i32 0
  %9 = load ptr, ptr %8, align 8, !tbaa !125
  %10 = ptrtoint ptr %6 to i64
  %11 = ptrtoint ptr %9 to i64
  %12 = sub i64 %10, %11
  %13 = sdiv exact i64 %12, 4
  ret i64 %13
}

; Function Attrs: mustprogress nounwind uwtable
define noundef i32 @_ZNK16HydrogenBondData7nFramesEv(ptr noundef nonnull align 8 dereferenceable(392) %0) #2 align 2 {
  %2 = alloca ptr, align 8
  store ptr %0, ptr %2, align 8, !tbaa !34
  %3 = load ptr, ptr %2, align 8
  %4 = getelementptr inbounds nuw %struct.HydrogenBondData, ptr %3, i32 0, i32 1
  %5 = load i8, ptr %4, align 1, !tbaa !71, !range !38, !noundef !39
  %6 = trunc i8 %5 to i1
  br i1 %6, label %7, label %8

7:                                                ; preds = %1
  br label %8

8:                                                ; preds = %7, %1
  %9 = getelementptr inbounds nuw %struct.HydrogenBondData, ptr %3, i32 0, i32 7
  %10 = call noundef i64 @_ZNKSt6vectorIfSaIfEE4sizeEv(ptr noundef nonnull align 8 dereferenceable(24) %9) #5
  %11 = trunc i64 %10 to i32
  ret i32 %11
}