; Function Attrs: mustprogress nofree norecurse nosync nounwind willreturn memory(argmem: read) uwtable
define noundef i32 @_ZNK16HydrogenBondData7nFramesEv(ptr noundef nonnull readonly align 8 captures(none) dereferenceable(392) %0) local_unnamed_addr #13 align 2 {
  %2 = getelementptr inbounds nuw i8, ptr %0, i64 88
  %3 = getelementptr inbounds nuw i8, ptr %0, i64 96
  %4 = load ptr, ptr %3, align 8, !tbaa !55
  %5 = load ptr, ptr %2, align 8, !tbaa !56
  %6 = ptrtoint ptr %4 to i64
  %7 = ptrtoint ptr %5 to i64
  %8 = sub i64 %6, %7
  %9 = lshr exact i64 %8, 2
  %10 = trunc i64 %9 to i32
  ret i32 %10
}